
rv32ui-p-sw：     文件格式 elf32-littleriscv


Disassembly of section .text.init:

80000000 <_start>:
80000000:	04c0006f          	jal	x0,8000004c <reset_vector>

80000004 <trap_vector>:
80000004:	34202f73          	csrrs	x30,mcause,x0
80000008:	00800f93          	addi	x31,x0,8
8000000c:	03ff0a63          	beq	x30,x31,80000040 <write_tohost>
80000010:	00900f93          	addi	x31,x0,9
80000014:	03ff0663          	beq	x30,x31,80000040 <write_tohost>
80000018:	00b00f93          	addi	x31,x0,11
8000001c:	03ff0263          	beq	x30,x31,80000040 <write_tohost>
80000020:	80000f17          	auipc	x30,0x80000
80000024:	fe0f0f13          	addi	x30,x30,-32 # 0 <_start-0x80000000>
80000028:	000f0463          	beq	x30,x0,80000030 <trap_vector+0x2c>
8000002c:	000f0067          	jalr	x0,0(x30)
80000030:	34202f73          	csrrs	x30,mcause,x0
80000034:	000f5463          	bge	x30,x0,8000003c <handle_exception>
80000038:	0040006f          	jal	x0,8000003c <handle_exception>

8000003c <handle_exception>:
8000003c:	5391e193          	ori	x3,x3,1337

80000040 <write_tohost>:
80000040:	00001f17          	auipc	x30,0x1
80000044:	fc3f2023          	sw	x3,-64(x30) # 80001000 <tohost>
80000048:	ff9ff06f          	jal	x0,80000040 <write_tohost>

8000004c <reset_vector>:
8000004c:	f1402573          	csrrs	x10,mhartid,x0
80000050:	00051063          	bne	x10,x0,80000050 <reset_vector+0x4>
80000054:	00000297          	auipc	x5,0x0
80000058:	01028293          	addi	x5,x5,16 # 80000064 <reset_vector+0x18>
8000005c:	30529073          	csrrw	x0,mtvec,x5
80000060:	18005073          	csrrwi	x0,satp,0
80000064:	00000297          	auipc	x5,0x0
80000068:	02028293          	addi	x5,x5,32 # 80000084 <reset_vector+0x38>
8000006c:	30529073          	csrrw	x0,mtvec,x5
80000070:	800002b7          	lui	x5,0x80000
80000074:	fff28293          	addi	x5,x5,-1 # 7fffffff <_end+0xffffdfcf>
80000078:	3b029073          	csrrw	x0,pmpaddr0,x5
8000007c:	01f00293          	addi	x5,x0,31
80000080:	3a029073          	csrrw	x0,pmpcfg0,x5
80000084:	00000297          	auipc	x5,0x0
80000088:	01828293          	addi	x5,x5,24 # 8000009c <reset_vector+0x50>
8000008c:	30529073          	csrrw	x0,mtvec,x5
80000090:	30205073          	csrrwi	x0,medeleg,0
80000094:	30305073          	csrrwi	x0,mideleg,0
80000098:	30405073          	csrrwi	x0,mie,0
8000009c:	00000193          	addi	x3,x0,0
800000a0:	00000297          	auipc	x5,0x0
800000a4:	f6428293          	addi	x5,x5,-156 # 80000004 <trap_vector>
800000a8:	30529073          	csrrw	x0,mtvec,x5
800000ac:	00100513          	addi	x10,x0,1
800000b0:	01f51513          	slli	x10,x10,0x1f
800000b4:	00054863          	blt	x10,x0,800000c4 <reset_vector+0x78>
800000b8:	0ff0000f          	fence	iorw,iorw
800000bc:	00100193          	addi	x3,x0,1
800000c0:	00000073          	ecall
800000c4:	80000297          	auipc	x5,0x80000
800000c8:	f3c28293          	addi	x5,x5,-196 # 0 <_start-0x80000000>
800000cc:	00028e63          	beq	x5,x0,800000e8 <reset_vector+0x9c>
800000d0:	10529073          	csrrw	x0,stvec,x5
800000d4:	0000b2b7          	lui	x5,0xb
800000d8:	10928293          	addi	x5,x5,265 # b109 <_start-0x7fff4ef7>
800000dc:	30229073          	csrrw	x0,medeleg,x5
800000e0:	30202373          	csrrs	x6,medeleg,x0
800000e4:	f4629ce3          	bne	x5,x6,8000003c <handle_exception>
800000e8:	30005073          	csrrwi	x0,mstatus,0
800000ec:	00000297          	auipc	x5,0x0
800000f0:	01428293          	addi	x5,x5,20 # 80000100 <test_2>
800000f4:	34129073          	csrrw	x0,mepc,x5
800000f8:	f1402573          	csrrs	x10,mhartid,x0
800000fc:	30200073          	mret

80000100 <test_2>:
80000100:	00002097          	auipc	x1,0x2
80000104:	f0008093          	addi	x1,x1,-256 # 80002000 <begin_signature>
80000108:	00aa0137          	lui	x2,0xaa0
8000010c:	0aa10113          	addi	x2,x2,170 # aa00aa <_start-0x7f55ff56>
80000110:	0020a023          	sw	x2,0(x1)
80000114:	0000a703          	lw	x14,0(x1)
80000118:	00aa0eb7          	lui	x29,0xaa0
8000011c:	0aae8e93          	addi	x29,x29,170 # aa00aa <_start-0x7f55ff56>
80000120:	00200193          	addi	x3,x0,2
80000124:	47d71063          	bne	x14,x29,80000584 <fail>

80000128 <test_3>:
80000128:	00002097          	auipc	x1,0x2
8000012c:	ed808093          	addi	x1,x1,-296 # 80002000 <begin_signature>
80000130:	aa00b137          	lui	x2,0xaa00b
80000134:	a0010113          	addi	x2,x2,-1536 # aa00aa00 <_end+0x2a0089d0>
80000138:	0020a223          	sw	x2,4(x1)
8000013c:	0040a703          	lw	x14,4(x1)
80000140:	aa00beb7          	lui	x29,0xaa00b
80000144:	a00e8e93          	addi	x29,x29,-1536 # aa00aa00 <_end+0x2a0089d0>
80000148:	00300193          	addi	x3,x0,3
8000014c:	43d71c63          	bne	x14,x29,80000584 <fail>

80000150 <test_4>:
80000150:	00002097          	auipc	x1,0x2
80000154:	eb008093          	addi	x1,x1,-336 # 80002000 <begin_signature>
80000158:	0aa01137          	lui	x2,0xaa01
8000015c:	aa010113          	addi	x2,x2,-1376 # aa00aa0 <_start-0x755ff560>
80000160:	0020a423          	sw	x2,8(x1)
80000164:	0080a703          	lw	x14,8(x1)
80000168:	0aa01eb7          	lui	x29,0xaa01
8000016c:	aa0e8e93          	addi	x29,x29,-1376 # aa00aa0 <_start-0x755ff560>
80000170:	00400193          	addi	x3,x0,4
80000174:	41d71863          	bne	x14,x29,80000584 <fail>

80000178 <test_5>:
80000178:	00002097          	auipc	x1,0x2
8000017c:	e8808093          	addi	x1,x1,-376 # 80002000 <begin_signature>
80000180:	a00aa137          	lui	x2,0xa00aa
80000184:	00a10113          	addi	x2,x2,10 # a00aa00a <_end+0x200a7fda>
80000188:	0020a623          	sw	x2,12(x1)
8000018c:	00c0a703          	lw	x14,12(x1)
80000190:	a00aaeb7          	lui	x29,0xa00aa
80000194:	00ae8e93          	addi	x29,x29,10 # a00aa00a <_end+0x200a7fda>
80000198:	00500193          	addi	x3,x0,5
8000019c:	3fd71463          	bne	x14,x29,80000584 <fail>

800001a0 <test_6>:
800001a0:	00002097          	auipc	x1,0x2
800001a4:	e7c08093          	addi	x1,x1,-388 # 8000201c <tdat8>
800001a8:	00aa0137          	lui	x2,0xaa0
800001ac:	0aa10113          	addi	x2,x2,170 # aa00aa <_start-0x7f55ff56>
800001b0:	fe20aa23          	sw	x2,-12(x1)
800001b4:	ff40a703          	lw	x14,-12(x1)
800001b8:	00aa0eb7          	lui	x29,0xaa0
800001bc:	0aae8e93          	addi	x29,x29,170 # aa00aa <_start-0x7f55ff56>
800001c0:	00600193          	addi	x3,x0,6
800001c4:	3dd71063          	bne	x14,x29,80000584 <fail>

800001c8 <test_7>:
800001c8:	00002097          	auipc	x1,0x2
800001cc:	e5408093          	addi	x1,x1,-428 # 8000201c <tdat8>
800001d0:	aa00b137          	lui	x2,0xaa00b
800001d4:	a0010113          	addi	x2,x2,-1536 # aa00aa00 <_end+0x2a0089d0>
800001d8:	fe20ac23          	sw	x2,-8(x1)
800001dc:	ff80a703          	lw	x14,-8(x1)
800001e0:	aa00beb7          	lui	x29,0xaa00b
800001e4:	a00e8e93          	addi	x29,x29,-1536 # aa00aa00 <_end+0x2a0089d0>
800001e8:	00700193          	addi	x3,x0,7
800001ec:	39d71c63          	bne	x14,x29,80000584 <fail>

800001f0 <test_8>:
800001f0:	00002097          	auipc	x1,0x2
800001f4:	e2c08093          	addi	x1,x1,-468 # 8000201c <tdat8>
800001f8:	0aa01137          	lui	x2,0xaa01
800001fc:	aa010113          	addi	x2,x2,-1376 # aa00aa0 <_start-0x755ff560>
80000200:	fe20ae23          	sw	x2,-4(x1)
80000204:	ffc0a703          	lw	x14,-4(x1)
80000208:	0aa01eb7          	lui	x29,0xaa01
8000020c:	aa0e8e93          	addi	x29,x29,-1376 # aa00aa0 <_start-0x755ff560>
80000210:	00800193          	addi	x3,x0,8
80000214:	37d71863          	bne	x14,x29,80000584 <fail>

80000218 <test_9>:
80000218:	00002097          	auipc	x1,0x2
8000021c:	e0408093          	addi	x1,x1,-508 # 8000201c <tdat8>
80000220:	a00aa137          	lui	x2,0xa00aa
80000224:	00a10113          	addi	x2,x2,10 # a00aa00a <_end+0x200a7fda>
80000228:	0020a023          	sw	x2,0(x1)
8000022c:	0000a703          	lw	x14,0(x1)
80000230:	a00aaeb7          	lui	x29,0xa00aa
80000234:	00ae8e93          	addi	x29,x29,10 # a00aa00a <_end+0x200a7fda>
80000238:	00900193          	addi	x3,x0,9
8000023c:	35d71463          	bne	x14,x29,80000584 <fail>

80000240 <test_10>:
80000240:	00002097          	auipc	x1,0x2
80000244:	de008093          	addi	x1,x1,-544 # 80002020 <tdat9>
80000248:	12345137          	lui	x2,0x12345
8000024c:	67810113          	addi	x2,x2,1656 # 12345678 <_start-0x6dcba988>
80000250:	fe008213          	addi	x4,x1,-32
80000254:	02222023          	sw	x2,32(x4) # 20 <_start-0x7fffffe0>
80000258:	0000a283          	lw	x5,0(x1)
8000025c:	12345eb7          	lui	x29,0x12345
80000260:	678e8e93          	addi	x29,x29,1656 # 12345678 <_start-0x6dcba988>
80000264:	00a00193          	addi	x3,x0,10
80000268:	31d29e63          	bne	x5,x29,80000584 <fail>

8000026c <test_11>:
8000026c:	00002097          	auipc	x1,0x2
80000270:	db408093          	addi	x1,x1,-588 # 80002020 <tdat9>
80000274:	58213137          	lui	x2,0x58213
80000278:	09810113          	addi	x2,x2,152 # 58213098 <_start-0x27decf68>
8000027c:	ffd08093          	addi	x1,x1,-3
80000280:	0020a3a3          	sw	x2,7(x1)
80000284:	00002217          	auipc	x4,0x2
80000288:	da020213          	addi	x4,x4,-608 # 80002024 <tdat10>
8000028c:	00022283          	lw	x5,0(x4) # 0 <_start-0x80000000>
80000290:	58213eb7          	lui	x29,0x58213
80000294:	098e8e93          	addi	x29,x29,152 # 58213098 <_start-0x27decf68>
80000298:	00b00193          	addi	x3,x0,11
8000029c:	2fd29463          	bne	x5,x29,80000584 <fail>

800002a0 <test_12>:
800002a0:	00c00193          	addi	x3,x0,12
800002a4:	00000213          	addi	x4,x0,0
800002a8:	aabbd0b7          	lui	x1,0xaabbd
800002ac:	cdd08093          	addi	x1,x1,-803 # aabbccdd <_end+0x2abbacad>
800002b0:	00002117          	auipc	x2,0x2
800002b4:	d5010113          	addi	x2,x2,-688 # 80002000 <begin_signature>
800002b8:	00112023          	sw	x1,0(x2)
800002bc:	00012703          	lw	x14,0(x2)
800002c0:	aabbdeb7          	lui	x29,0xaabbd
800002c4:	cdde8e93          	addi	x29,x29,-803 # aabbccdd <_end+0x2abbacad>
800002c8:	2bd71e63          	bne	x14,x29,80000584 <fail>
800002cc:	00120213          	addi	x4,x4,1 # 1 <_start-0x7fffffff>
800002d0:	00200293          	addi	x5,x0,2
800002d4:	fc521ae3          	bne	x4,x5,800002a8 <test_12+0x8>

800002d8 <test_13>:
800002d8:	00d00193          	addi	x3,x0,13
800002dc:	00000213          	addi	x4,x0,0
800002e0:	daabc0b7          	lui	x1,0xdaabc
800002e4:	ccd08093          	addi	x1,x1,-819 # daabbccd <_end+0x5aab9c9d>
800002e8:	00002117          	auipc	x2,0x2
800002ec:	d1810113          	addi	x2,x2,-744 # 80002000 <begin_signature>
800002f0:	00000013          	addi	x0,x0,0
800002f4:	00112223          	sw	x1,4(x2)
800002f8:	00412703          	lw	x14,4(x2)
800002fc:	daabceb7          	lui	x29,0xdaabc
80000300:	ccde8e93          	addi	x29,x29,-819 # daabbccd <_end+0x5aab9c9d>
80000304:	29d71063          	bne	x14,x29,80000584 <fail>
80000308:	00120213          	addi	x4,x4,1 # 1 <_start-0x7fffffff>
8000030c:	00200293          	addi	x5,x0,2
80000310:	fc5218e3          	bne	x4,x5,800002e0 <test_13+0x8>

80000314 <test_14>:
80000314:	00e00193          	addi	x3,x0,14
80000318:	00000213          	addi	x4,x0,0
8000031c:	ddaac0b7          	lui	x1,0xddaac
80000320:	bcc08093          	addi	x1,x1,-1076 # ddaabbcc <_end+0x5daa9b9c>
80000324:	00002117          	auipc	x2,0x2
80000328:	cdc10113          	addi	x2,x2,-804 # 80002000 <begin_signature>
8000032c:	00000013          	addi	x0,x0,0
80000330:	00000013          	addi	x0,x0,0
80000334:	00112423          	sw	x1,8(x2)
80000338:	00812703          	lw	x14,8(x2)
8000033c:	ddaaceb7          	lui	x29,0xddaac
80000340:	bcce8e93          	addi	x29,x29,-1076 # ddaabbcc <_end+0x5daa9b9c>
80000344:	25d71063          	bne	x14,x29,80000584 <fail>
80000348:	00120213          	addi	x4,x4,1 # 1 <_start-0x7fffffff>
8000034c:	00200293          	addi	x5,x0,2
80000350:	fc5216e3          	bne	x4,x5,8000031c <test_14+0x8>

80000354 <test_15>:
80000354:	00f00193          	addi	x3,x0,15
80000358:	00000213          	addi	x4,x0,0
8000035c:	cddab0b7          	lui	x1,0xcddab
80000360:	bbc08093          	addi	x1,x1,-1092 # cddaabbc <_end+0x4dda8b8c>
80000364:	00000013          	addi	x0,x0,0
80000368:	00002117          	auipc	x2,0x2
8000036c:	c9810113          	addi	x2,x2,-872 # 80002000 <begin_signature>
80000370:	00112623          	sw	x1,12(x2)
80000374:	00c12703          	lw	x14,12(x2)
80000378:	cddabeb7          	lui	x29,0xcddab
8000037c:	bbce8e93          	addi	x29,x29,-1092 # cddaabbc <_end+0x4dda8b8c>
80000380:	21d71263          	bne	x14,x29,80000584 <fail>
80000384:	00120213          	addi	x4,x4,1 # 1 <_start-0x7fffffff>
80000388:	00200293          	addi	x5,x0,2
8000038c:	fc5218e3          	bne	x4,x5,8000035c <test_15+0x8>

80000390 <test_16>:
80000390:	01000193          	addi	x3,x0,16
80000394:	00000213          	addi	x4,x0,0
80000398:	ccddb0b7          	lui	x1,0xccddb
8000039c:	abb08093          	addi	x1,x1,-1349 # ccddaabb <_end+0x4cdd8a8b>
800003a0:	00000013          	addi	x0,x0,0
800003a4:	00002117          	auipc	x2,0x2
800003a8:	c5c10113          	addi	x2,x2,-932 # 80002000 <begin_signature>
800003ac:	00000013          	addi	x0,x0,0
800003b0:	00112823          	sw	x1,16(x2)
800003b4:	01012703          	lw	x14,16(x2)
800003b8:	ccddbeb7          	lui	x29,0xccddb
800003bc:	abbe8e93          	addi	x29,x29,-1349 # ccddaabb <_end+0x4cdd8a8b>
800003c0:	1dd71263          	bne	x14,x29,80000584 <fail>
800003c4:	00120213          	addi	x4,x4,1 # 1 <_start-0x7fffffff>
800003c8:	00200293          	addi	x5,x0,2
800003cc:	fc5216e3          	bne	x4,x5,80000398 <test_16+0x8>

800003d0 <test_17>:
800003d0:	01100193          	addi	x3,x0,17
800003d4:	00000213          	addi	x4,x0,0
800003d8:	bccde0b7          	lui	x1,0xbccde
800003dc:	aab08093          	addi	x1,x1,-1365 # bccddaab <_end+0x3ccdba7b>
800003e0:	00000013          	addi	x0,x0,0
800003e4:	00000013          	addi	x0,x0,0
800003e8:	00002117          	auipc	x2,0x2
800003ec:	c1810113          	addi	x2,x2,-1000 # 80002000 <begin_signature>
800003f0:	00112a23          	sw	x1,20(x2)
800003f4:	01412703          	lw	x14,20(x2)
800003f8:	bccdeeb7          	lui	x29,0xbccde
800003fc:	aabe8e93          	addi	x29,x29,-1365 # bccddaab <_end+0x3ccdba7b>
80000400:	19d71263          	bne	x14,x29,80000584 <fail>
80000404:	00120213          	addi	x4,x4,1 # 1 <_start-0x7fffffff>
80000408:	00200293          	addi	x5,x0,2
8000040c:	fc5216e3          	bne	x4,x5,800003d8 <test_17+0x8>

80000410 <test_18>:
80000410:	01200193          	addi	x3,x0,18
80000414:	00000213          	addi	x4,x0,0
80000418:	00002117          	auipc	x2,0x2
8000041c:	be810113          	addi	x2,x2,-1048 # 80002000 <begin_signature>
80000420:	001120b7          	lui	x1,0x112
80000424:	23308093          	addi	x1,x1,563 # 112233 <_start-0x7feeddcd>
80000428:	00112023          	sw	x1,0(x2)
8000042c:	00012703          	lw	x14,0(x2)
80000430:	00112eb7          	lui	x29,0x112
80000434:	233e8e93          	addi	x29,x29,563 # 112233 <_start-0x7feeddcd>
80000438:	15d71663          	bne	x14,x29,80000584 <fail>
8000043c:	00120213          	addi	x4,x4,1 # 1 <_start-0x7fffffff>
80000440:	00200293          	addi	x5,x0,2
80000444:	fc521ae3          	bne	x4,x5,80000418 <test_18+0x8>

80000448 <test_19>:
80000448:	01300193          	addi	x3,x0,19
8000044c:	00000213          	addi	x4,x0,0
80000450:	00002117          	auipc	x2,0x2
80000454:	bb010113          	addi	x2,x2,-1104 # 80002000 <begin_signature>
80000458:	300110b7          	lui	x1,0x30011
8000045c:	22308093          	addi	x1,x1,547 # 30011223 <_start-0x4ffeeddd>
80000460:	00000013          	addi	x0,x0,0
80000464:	00112223          	sw	x1,4(x2)
80000468:	00412703          	lw	x14,4(x2)
8000046c:	30011eb7          	lui	x29,0x30011
80000470:	223e8e93          	addi	x29,x29,547 # 30011223 <_start-0x4ffeeddd>
80000474:	11d71863          	bne	x14,x29,80000584 <fail>
80000478:	00120213          	addi	x4,x4,1 # 1 <_start-0x7fffffff>
8000047c:	00200293          	addi	x5,x0,2
80000480:	fc5218e3          	bne	x4,x5,80000450 <test_19+0x8>

80000484 <test_20>:
80000484:	01400193          	addi	x3,x0,20
80000488:	00000213          	addi	x4,x0,0
8000048c:	00002117          	auipc	x2,0x2
80000490:	b7410113          	addi	x2,x2,-1164 # 80002000 <begin_signature>
80000494:	330010b7          	lui	x1,0x33001
80000498:	12208093          	addi	x1,x1,290 # 33001122 <_start-0x4cffeede>
8000049c:	00000013          	addi	x0,x0,0
800004a0:	00000013          	addi	x0,x0,0
800004a4:	00112423          	sw	x1,8(x2)
800004a8:	00812703          	lw	x14,8(x2)
800004ac:	33001eb7          	lui	x29,0x33001
800004b0:	122e8e93          	addi	x29,x29,290 # 33001122 <_start-0x4cffeede>
800004b4:	0dd71863          	bne	x14,x29,80000584 <fail>
800004b8:	00120213          	addi	x4,x4,1 # 1 <_start-0x7fffffff>
800004bc:	00200293          	addi	x5,x0,2
800004c0:	fc5216e3          	bne	x4,x5,8000048c <test_20+0x8>

800004c4 <test_21>:
800004c4:	01500193          	addi	x3,x0,21
800004c8:	00000213          	addi	x4,x0,0
800004cc:	00002117          	auipc	x2,0x2
800004d0:	b3410113          	addi	x2,x2,-1228 # 80002000 <begin_signature>
800004d4:	00000013          	addi	x0,x0,0
800004d8:	233000b7          	lui	x1,0x23300
800004dc:	11208093          	addi	x1,x1,274 # 23300112 <_start-0x5ccffeee>
800004e0:	00112623          	sw	x1,12(x2)
800004e4:	00c12703          	lw	x14,12(x2)
800004e8:	23300eb7          	lui	x29,0x23300
800004ec:	112e8e93          	addi	x29,x29,274 # 23300112 <_start-0x5ccffeee>
800004f0:	09d71a63          	bne	x14,x29,80000584 <fail>
800004f4:	00120213          	addi	x4,x4,1 # 1 <_start-0x7fffffff>
800004f8:	00200293          	addi	x5,x0,2
800004fc:	fc5218e3          	bne	x4,x5,800004cc <test_21+0x8>

80000500 <test_22>:
80000500:	01600193          	addi	x3,x0,22
80000504:	00000213          	addi	x4,x0,0
80000508:	00002117          	auipc	x2,0x2
8000050c:	af810113          	addi	x2,x2,-1288 # 80002000 <begin_signature>
80000510:	00000013          	addi	x0,x0,0
80000514:	223300b7          	lui	x1,0x22330
80000518:	01108093          	addi	x1,x1,17 # 22330011 <_start-0x5dccffef>
8000051c:	00000013          	addi	x0,x0,0
80000520:	00112823          	sw	x1,16(x2)
80000524:	01012703          	lw	x14,16(x2)
80000528:	22330eb7          	lui	x29,0x22330
8000052c:	011e8e93          	addi	x29,x29,17 # 22330011 <_start-0x5dccffef>
80000530:	05d71a63          	bne	x14,x29,80000584 <fail>
80000534:	00120213          	addi	x4,x4,1 # 1 <_start-0x7fffffff>
80000538:	00200293          	addi	x5,x0,2
8000053c:	fc5216e3          	bne	x4,x5,80000508 <test_22+0x8>

80000540 <test_23>:
80000540:	01700193          	addi	x3,x0,23
80000544:	00000213          	addi	x4,x0,0
80000548:	00002117          	auipc	x2,0x2
8000054c:	ab810113          	addi	x2,x2,-1352 # 80002000 <begin_signature>
80000550:	00000013          	addi	x0,x0,0
80000554:	00000013          	addi	x0,x0,0
80000558:	122330b7          	lui	x1,0x12233
8000055c:	00108093          	addi	x1,x1,1 # 12233001 <_start-0x6ddccfff>
80000560:	00112a23          	sw	x1,20(x2)
80000564:	01412703          	lw	x14,20(x2)
80000568:	12233eb7          	lui	x29,0x12233
8000056c:	001e8e93          	addi	x29,x29,1 # 12233001 <_start-0x6ddccfff>
80000570:	01d71a63          	bne	x14,x29,80000584 <fail>
80000574:	00120213          	addi	x4,x4,1 # 1 <_start-0x7fffffff>
80000578:	00200293          	addi	x5,x0,2
8000057c:	fc5216e3          	bne	x4,x5,80000548 <test_23+0x8>
80000580:	00301c63          	bne	x0,x3,80000598 <pass>

80000584 <fail>:
80000584:	0ff0000f          	fence	iorw,iorw
80000588:	00018063          	beq	x3,x0,80000588 <fail+0x4>
8000058c:	00119193          	slli	x3,x3,0x1
80000590:	0011e193          	ori	x3,x3,1
80000594:	00000073          	ecall

80000598 <pass>:
80000598:	0ff0000f          	fence	iorw,iorw
8000059c:	00100193          	addi	x3,x0,1
800005a0:	00000073          	ecall
800005a4:	c0001073          	unimp
800005a8:	0000                	unimp
800005aa:	0000                	unimp
800005ac:	0000                	unimp
800005ae:	0000                	unimp
800005b0:	0000                	unimp
800005b2:	0000                	unimp
800005b4:	0000                	unimp
800005b6:	0000                	unimp
800005b8:	0000                	unimp
800005ba:	0000                	unimp
800005bc:	0000                	unimp
800005be:	0000                	unimp
800005c0:	0000                	unimp
800005c2:	0000                	unimp

Disassembly of section .data:

80002000 <begin_signature>:
80002000:	deadbeef          	jal	x29,7ffdd5ea <_start-0x22a16>

80002004 <tdat2>:
80002004:	deadbeef          	jal	x29,7ffdd5ee <_start-0x22a12>

80002008 <tdat3>:
80002008:	deadbeef          	jal	x29,7ffdd5f2 <_start-0x22a0e>

8000200c <tdat4>:
8000200c:	deadbeef          	jal	x29,7ffdd5f6 <_start-0x22a0a>

80002010 <tdat5>:
80002010:	deadbeef          	jal	x29,7ffdd5fa <_start-0x22a06>

80002014 <tdat6>:
80002014:	deadbeef          	jal	x29,7ffdd5fe <_start-0x22a02>

80002018 <tdat7>:
80002018:	deadbeef          	jal	x29,7ffdd602 <_start-0x229fe>

8000201c <tdat8>:
8000201c:	deadbeef          	jal	x29,7ffdd606 <_start-0x229fa>

80002020 <tdat9>:
80002020:	deadbeef          	jal	x29,7ffdd60a <_start-0x229f6>

80002024 <tdat10>:
80002024:	deadbeef          	jal	x29,7ffdd60e <_start-0x229f2>
80002028:	0000                	unimp
8000202a:	0000                	unimp
8000202c:	0000                	unimp
8000202e:	0000                	unimp
