
rv32ui-p-srl：     文件格式 elf32-littleriscv


Disassembly of section .text.init:

80000000 <_start>:
80000000:	04c0006f          	jal	x0,8000004c <reset_vector>

80000004 <trap_vector>:
80000004:	34202f73          	csrrs	x30,mcause,x0
80000008:	00800f93          	addi	x31,x0,8
8000000c:	03ff0a63          	beq	x30,x31,80000040 <write_tohost>
80000010:	00900f93          	addi	x31,x0,9
80000014:	03ff0663          	beq	x30,x31,80000040 <write_tohost>
80000018:	00b00f93          	addi	x31,x0,11
8000001c:	03ff0263          	beq	x30,x31,80000040 <write_tohost>
80000020:	80000f17          	auipc	x30,0x80000
80000024:	fe0f0f13          	addi	x30,x30,-32 # 0 <_start-0x80000000>
80000028:	000f0463          	beq	x30,x0,80000030 <trap_vector+0x2c>
8000002c:	000f0067          	jalr	x0,0(x30)
80000030:	34202f73          	csrrs	x30,mcause,x0
80000034:	000f5463          	bge	x30,x0,8000003c <handle_exception>
80000038:	0040006f          	jal	x0,8000003c <handle_exception>

8000003c <handle_exception>:
8000003c:	5391e193          	ori	x3,x3,1337

80000040 <write_tohost>:
80000040:	00001f17          	auipc	x30,0x1
80000044:	fc3f2023          	sw	x3,-64(x30) # 80001000 <tohost>
80000048:	ff9ff06f          	jal	x0,80000040 <write_tohost>

8000004c <reset_vector>:
8000004c:	f1402573          	csrrs	x10,mhartid,x0
80000050:	00051063          	bne	x10,x0,80000050 <reset_vector+0x4>
80000054:	00000297          	auipc	x5,0x0
80000058:	01028293          	addi	x5,x5,16 # 80000064 <reset_vector+0x18>
8000005c:	30529073          	csrrw	x0,mtvec,x5
80000060:	18005073          	csrrwi	x0,satp,0
80000064:	00000297          	auipc	x5,0x0
80000068:	02028293          	addi	x5,x5,32 # 80000084 <reset_vector+0x38>
8000006c:	30529073          	csrrw	x0,mtvec,x5
80000070:	800002b7          	lui	x5,0x80000
80000074:	fff28293          	addi	x5,x5,-1 # 7fffffff <_end+0xffffdfff>
80000078:	3b029073          	csrrw	x0,pmpaddr0,x5
8000007c:	01f00293          	addi	x5,x0,31
80000080:	3a029073          	csrrw	x0,pmpcfg0,x5
80000084:	00000297          	auipc	x5,0x0
80000088:	01828293          	addi	x5,x5,24 # 8000009c <reset_vector+0x50>
8000008c:	30529073          	csrrw	x0,mtvec,x5
80000090:	30205073          	csrrwi	x0,medeleg,0
80000094:	30305073          	csrrwi	x0,mideleg,0
80000098:	30405073          	csrrwi	x0,mie,0
8000009c:	00000193          	addi	x3,x0,0
800000a0:	00000297          	auipc	x5,0x0
800000a4:	f6428293          	addi	x5,x5,-156 # 80000004 <trap_vector>
800000a8:	30529073          	csrrw	x0,mtvec,x5
800000ac:	00100513          	addi	x10,x0,1
800000b0:	01f51513          	slli	x10,x10,0x1f
800000b4:	00054863          	blt	x10,x0,800000c4 <reset_vector+0x78>
800000b8:	0ff0000f          	fence	iorw,iorw
800000bc:	00100193          	addi	x3,x0,1
800000c0:	00000073          	ecall
800000c4:	80000297          	auipc	x5,0x80000
800000c8:	f3c28293          	addi	x5,x5,-196 # 0 <_start-0x80000000>
800000cc:	00028e63          	beq	x5,x0,800000e8 <reset_vector+0x9c>
800000d0:	10529073          	csrrw	x0,stvec,x5
800000d4:	0000b2b7          	lui	x5,0xb
800000d8:	10928293          	addi	x5,x5,265 # b109 <_start-0x7fff4ef7>
800000dc:	30229073          	csrrw	x0,medeleg,x5
800000e0:	30202373          	csrrs	x6,medeleg,x0
800000e4:	f4629ce3          	bne	x5,x6,8000003c <handle_exception>
800000e8:	30005073          	csrrwi	x0,mstatus,0
800000ec:	00000297          	auipc	x5,0x0
800000f0:	01428293          	addi	x5,x5,20 # 80000100 <test_2>
800000f4:	34129073          	csrrw	x0,mepc,x5
800000f8:	f1402573          	csrrs	x10,mhartid,x0
800000fc:	30200073          	mret

80000100 <test_2>:
80000100:	800000b7          	lui	x1,0x80000
80000104:	00000113          	addi	x2,x0,0
80000108:	0020d733          	srl	x14,x1,x2
8000010c:	80000eb7          	lui	x29,0x80000
80000110:	00200193          	addi	x3,x0,2
80000114:	57d71863          	bne	x14,x29,80000684 <fail>

80000118 <test_3>:
80000118:	800000b7          	lui	x1,0x80000
8000011c:	00100113          	addi	x2,x0,1
80000120:	0020d733          	srl	x14,x1,x2
80000124:	40000eb7          	lui	x29,0x40000
80000128:	00300193          	addi	x3,x0,3
8000012c:	55d71c63          	bne	x14,x29,80000684 <fail>

80000130 <test_4>:
80000130:	800000b7          	lui	x1,0x80000
80000134:	00700113          	addi	x2,x0,7
80000138:	0020d733          	srl	x14,x1,x2
8000013c:	01000eb7          	lui	x29,0x1000
80000140:	00400193          	addi	x3,x0,4
80000144:	55d71063          	bne	x14,x29,80000684 <fail>

80000148 <test_5>:
80000148:	800000b7          	lui	x1,0x80000
8000014c:	00e00113          	addi	x2,x0,14
80000150:	0020d733          	srl	x14,x1,x2
80000154:	00020eb7          	lui	x29,0x20
80000158:	00500193          	addi	x3,x0,5
8000015c:	53d71463          	bne	x14,x29,80000684 <fail>

80000160 <test_6>:
80000160:	800000b7          	lui	x1,0x80000
80000164:	00108093          	addi	x1,x1,1 # 80000001 <_end+0xffffe001>
80000168:	01f00113          	addi	x2,x0,31
8000016c:	0020d733          	srl	x14,x1,x2
80000170:	00100e93          	addi	x29,x0,1
80000174:	00600193          	addi	x3,x0,6
80000178:	51d71663          	bne	x14,x29,80000684 <fail>

8000017c <test_7>:
8000017c:	fff00093          	addi	x1,x0,-1
80000180:	00000113          	addi	x2,x0,0
80000184:	0020d733          	srl	x14,x1,x2
80000188:	fff00e93          	addi	x29,x0,-1
8000018c:	00700193          	addi	x3,x0,7
80000190:	4fd71a63          	bne	x14,x29,80000684 <fail>

80000194 <test_8>:
80000194:	fff00093          	addi	x1,x0,-1
80000198:	00100113          	addi	x2,x0,1
8000019c:	0020d733          	srl	x14,x1,x2
800001a0:	80000eb7          	lui	x29,0x80000
800001a4:	fffe8e93          	addi	x29,x29,-1 # 7fffffff <_end+0xffffdfff>
800001a8:	00800193          	addi	x3,x0,8
800001ac:	4dd71c63          	bne	x14,x29,80000684 <fail>

800001b0 <test_9>:
800001b0:	fff00093          	addi	x1,x0,-1
800001b4:	00700113          	addi	x2,x0,7
800001b8:	0020d733          	srl	x14,x1,x2
800001bc:	02000eb7          	lui	x29,0x2000
800001c0:	fffe8e93          	addi	x29,x29,-1 # 1ffffff <_start-0x7e000001>
800001c4:	00900193          	addi	x3,x0,9
800001c8:	4bd71e63          	bne	x14,x29,80000684 <fail>

800001cc <test_10>:
800001cc:	fff00093          	addi	x1,x0,-1
800001d0:	00e00113          	addi	x2,x0,14
800001d4:	0020d733          	srl	x14,x1,x2
800001d8:	00040eb7          	lui	x29,0x40
800001dc:	fffe8e93          	addi	x29,x29,-1 # 3ffff <_start-0x7ffc0001>
800001e0:	00a00193          	addi	x3,x0,10
800001e4:	4bd71063          	bne	x14,x29,80000684 <fail>

800001e8 <test_11>:
800001e8:	fff00093          	addi	x1,x0,-1
800001ec:	01f00113          	addi	x2,x0,31
800001f0:	0020d733          	srl	x14,x1,x2
800001f4:	00100e93          	addi	x29,x0,1
800001f8:	00b00193          	addi	x3,x0,11
800001fc:	49d71463          	bne	x14,x29,80000684 <fail>

80000200 <test_12>:
80000200:	212120b7          	lui	x1,0x21212
80000204:	12108093          	addi	x1,x1,289 # 21212121 <_start-0x5edededf>
80000208:	00000113          	addi	x2,x0,0
8000020c:	0020d733          	srl	x14,x1,x2
80000210:	21212eb7          	lui	x29,0x21212
80000214:	121e8e93          	addi	x29,x29,289 # 21212121 <_start-0x5edededf>
80000218:	00c00193          	addi	x3,x0,12
8000021c:	47d71463          	bne	x14,x29,80000684 <fail>

80000220 <test_13>:
80000220:	212120b7          	lui	x1,0x21212
80000224:	12108093          	addi	x1,x1,289 # 21212121 <_start-0x5edededf>
80000228:	00100113          	addi	x2,x0,1
8000022c:	0020d733          	srl	x14,x1,x2
80000230:	10909eb7          	lui	x29,0x10909
80000234:	090e8e93          	addi	x29,x29,144 # 10909090 <_start-0x6f6f6f70>
80000238:	00d00193          	addi	x3,x0,13
8000023c:	45d71463          	bne	x14,x29,80000684 <fail>

80000240 <test_14>:
80000240:	212120b7          	lui	x1,0x21212
80000244:	12108093          	addi	x1,x1,289 # 21212121 <_start-0x5edededf>
80000248:	00700113          	addi	x2,x0,7
8000024c:	0020d733          	srl	x14,x1,x2
80000250:	00424eb7          	lui	x29,0x424
80000254:	242e8e93          	addi	x29,x29,578 # 424242 <_start-0x7fbdbdbe>
80000258:	00e00193          	addi	x3,x0,14
8000025c:	43d71463          	bne	x14,x29,80000684 <fail>

80000260 <test_15>:
80000260:	212120b7          	lui	x1,0x21212
80000264:	12108093          	addi	x1,x1,289 # 21212121 <_start-0x5edededf>
80000268:	00e00113          	addi	x2,x0,14
8000026c:	0020d733          	srl	x14,x1,x2
80000270:	00008eb7          	lui	x29,0x8
80000274:	484e8e93          	addi	x29,x29,1156 # 8484 <_start-0x7fff7b7c>
80000278:	00f00193          	addi	x3,x0,15
8000027c:	41d71463          	bne	x14,x29,80000684 <fail>

80000280 <test_16>:
80000280:	212120b7          	lui	x1,0x21212
80000284:	12108093          	addi	x1,x1,289 # 21212121 <_start-0x5edededf>
80000288:	01f00113          	addi	x2,x0,31
8000028c:	0020d733          	srl	x14,x1,x2
80000290:	00000e93          	addi	x29,x0,0
80000294:	01000193          	addi	x3,x0,16
80000298:	3fd71663          	bne	x14,x29,80000684 <fail>

8000029c <test_17>:
8000029c:	212120b7          	lui	x1,0x21212
800002a0:	12108093          	addi	x1,x1,289 # 21212121 <_start-0x5edededf>
800002a4:	fc000113          	addi	x2,x0,-64
800002a8:	0020d733          	srl	x14,x1,x2
800002ac:	21212eb7          	lui	x29,0x21212
800002b0:	121e8e93          	addi	x29,x29,289 # 21212121 <_start-0x5edededf>
800002b4:	01100193          	addi	x3,x0,17
800002b8:	3dd71663          	bne	x14,x29,80000684 <fail>

800002bc <test_18>:
800002bc:	212120b7          	lui	x1,0x21212
800002c0:	12108093          	addi	x1,x1,289 # 21212121 <_start-0x5edededf>
800002c4:	fc100113          	addi	x2,x0,-63
800002c8:	0020d733          	srl	x14,x1,x2
800002cc:	10909eb7          	lui	x29,0x10909
800002d0:	090e8e93          	addi	x29,x29,144 # 10909090 <_start-0x6f6f6f70>
800002d4:	01200193          	addi	x3,x0,18
800002d8:	3bd71663          	bne	x14,x29,80000684 <fail>

800002dc <test_19>:
800002dc:	212120b7          	lui	x1,0x21212
800002e0:	12108093          	addi	x1,x1,289 # 21212121 <_start-0x5edededf>
800002e4:	fc700113          	addi	x2,x0,-57
800002e8:	0020d733          	srl	x14,x1,x2
800002ec:	00424eb7          	lui	x29,0x424
800002f0:	242e8e93          	addi	x29,x29,578 # 424242 <_start-0x7fbdbdbe>
800002f4:	01300193          	addi	x3,x0,19
800002f8:	39d71663          	bne	x14,x29,80000684 <fail>

800002fc <test_20>:
800002fc:	212120b7          	lui	x1,0x21212
80000300:	12108093          	addi	x1,x1,289 # 21212121 <_start-0x5edededf>
80000304:	fce00113          	addi	x2,x0,-50
80000308:	0020d733          	srl	x14,x1,x2
8000030c:	00008eb7          	lui	x29,0x8
80000310:	484e8e93          	addi	x29,x29,1156 # 8484 <_start-0x7fff7b7c>
80000314:	01400193          	addi	x3,x0,20
80000318:	37d71663          	bne	x14,x29,80000684 <fail>

8000031c <test_21>:
8000031c:	212120b7          	lui	x1,0x21212
80000320:	12108093          	addi	x1,x1,289 # 21212121 <_start-0x5edededf>
80000324:	fff00113          	addi	x2,x0,-1
80000328:	0020d733          	srl	x14,x1,x2
8000032c:	00000e93          	addi	x29,x0,0
80000330:	01500193          	addi	x3,x0,21
80000334:	35d71863          	bne	x14,x29,80000684 <fail>

80000338 <test_22>:
80000338:	800000b7          	lui	x1,0x80000
8000033c:	00700113          	addi	x2,x0,7
80000340:	0020d0b3          	srl	x1,x1,x2
80000344:	01000eb7          	lui	x29,0x1000
80000348:	01600193          	addi	x3,x0,22
8000034c:	33d09c63          	bne	x1,x29,80000684 <fail>

80000350 <test_23>:
80000350:	800000b7          	lui	x1,0x80000
80000354:	00e00113          	addi	x2,x0,14
80000358:	0020d133          	srl	x2,x1,x2
8000035c:	00020eb7          	lui	x29,0x20
80000360:	01700193          	addi	x3,x0,23
80000364:	33d11063          	bne	x2,x29,80000684 <fail>

80000368 <test_24>:
80000368:	00700093          	addi	x1,x0,7
8000036c:	0010d0b3          	srl	x1,x1,x1
80000370:	00000e93          	addi	x29,x0,0
80000374:	01800193          	addi	x3,x0,24
80000378:	31d09663          	bne	x1,x29,80000684 <fail>

8000037c <test_25>:
8000037c:	00000213          	addi	x4,x0,0
80000380:	800000b7          	lui	x1,0x80000
80000384:	00700113          	addi	x2,x0,7
80000388:	0020d733          	srl	x14,x1,x2
8000038c:	00070313          	addi	x6,x14,0
80000390:	00120213          	addi	x4,x4,1 # 1 <_start-0x7fffffff>
80000394:	00200293          	addi	x5,x0,2
80000398:	fe5214e3          	bne	x4,x5,80000380 <test_25+0x4>
8000039c:	01000eb7          	lui	x29,0x1000
800003a0:	01900193          	addi	x3,x0,25
800003a4:	2fd31063          	bne	x6,x29,80000684 <fail>

800003a8 <test_26>:
800003a8:	00000213          	addi	x4,x0,0
800003ac:	800000b7          	lui	x1,0x80000
800003b0:	00e00113          	addi	x2,x0,14
800003b4:	0020d733          	srl	x14,x1,x2
800003b8:	00000013          	addi	x0,x0,0
800003bc:	00070313          	addi	x6,x14,0
800003c0:	00120213          	addi	x4,x4,1 # 1 <_start-0x7fffffff>
800003c4:	00200293          	addi	x5,x0,2
800003c8:	fe5212e3          	bne	x4,x5,800003ac <test_26+0x4>
800003cc:	00020eb7          	lui	x29,0x20
800003d0:	01a00193          	addi	x3,x0,26
800003d4:	2bd31863          	bne	x6,x29,80000684 <fail>

800003d8 <test_27>:
800003d8:	00000213          	addi	x4,x0,0
800003dc:	800000b7          	lui	x1,0x80000
800003e0:	01f00113          	addi	x2,x0,31
800003e4:	0020d733          	srl	x14,x1,x2
800003e8:	00000013          	addi	x0,x0,0
800003ec:	00000013          	addi	x0,x0,0
800003f0:	00070313          	addi	x6,x14,0
800003f4:	00120213          	addi	x4,x4,1 # 1 <_start-0x7fffffff>
800003f8:	00200293          	addi	x5,x0,2
800003fc:	fe5210e3          	bne	x4,x5,800003dc <test_27+0x4>
80000400:	00100e93          	addi	x29,x0,1
80000404:	01b00193          	addi	x3,x0,27
80000408:	27d31e63          	bne	x6,x29,80000684 <fail>

8000040c <test_28>:
8000040c:	00000213          	addi	x4,x0,0
80000410:	800000b7          	lui	x1,0x80000
80000414:	00700113          	addi	x2,x0,7
80000418:	0020d733          	srl	x14,x1,x2
8000041c:	00120213          	addi	x4,x4,1 # 1 <_start-0x7fffffff>
80000420:	00200293          	addi	x5,x0,2
80000424:	fe5216e3          	bne	x4,x5,80000410 <test_28+0x4>
80000428:	01000eb7          	lui	x29,0x1000
8000042c:	01c00193          	addi	x3,x0,28
80000430:	25d71a63          	bne	x14,x29,80000684 <fail>

80000434 <test_29>:
80000434:	00000213          	addi	x4,x0,0
80000438:	800000b7          	lui	x1,0x80000
8000043c:	00e00113          	addi	x2,x0,14
80000440:	00000013          	addi	x0,x0,0
80000444:	0020d733          	srl	x14,x1,x2
80000448:	00120213          	addi	x4,x4,1 # 1 <_start-0x7fffffff>
8000044c:	00200293          	addi	x5,x0,2
80000450:	fe5214e3          	bne	x4,x5,80000438 <test_29+0x4>
80000454:	00020eb7          	lui	x29,0x20
80000458:	01d00193          	addi	x3,x0,29
8000045c:	23d71463          	bne	x14,x29,80000684 <fail>

80000460 <test_30>:
80000460:	00000213          	addi	x4,x0,0
80000464:	800000b7          	lui	x1,0x80000
80000468:	01f00113          	addi	x2,x0,31
8000046c:	00000013          	addi	x0,x0,0
80000470:	00000013          	addi	x0,x0,0
80000474:	0020d733          	srl	x14,x1,x2
80000478:	00120213          	addi	x4,x4,1 # 1 <_start-0x7fffffff>
8000047c:	00200293          	addi	x5,x0,2
80000480:	fe5212e3          	bne	x4,x5,80000464 <test_30+0x4>
80000484:	00100e93          	addi	x29,x0,1
80000488:	01e00193          	addi	x3,x0,30
8000048c:	1fd71c63          	bne	x14,x29,80000684 <fail>

80000490 <test_31>:
80000490:	00000213          	addi	x4,x0,0
80000494:	800000b7          	lui	x1,0x80000
80000498:	00000013          	addi	x0,x0,0
8000049c:	00700113          	addi	x2,x0,7
800004a0:	0020d733          	srl	x14,x1,x2
800004a4:	00120213          	addi	x4,x4,1 # 1 <_start-0x7fffffff>
800004a8:	00200293          	addi	x5,x0,2
800004ac:	fe5214e3          	bne	x4,x5,80000494 <test_31+0x4>
800004b0:	01000eb7          	lui	x29,0x1000
800004b4:	01f00193          	addi	x3,x0,31
800004b8:	1dd71663          	bne	x14,x29,80000684 <fail>

800004bc <test_32>:
800004bc:	00000213          	addi	x4,x0,0
800004c0:	800000b7          	lui	x1,0x80000
800004c4:	00000013          	addi	x0,x0,0
800004c8:	00e00113          	addi	x2,x0,14
800004cc:	00000013          	addi	x0,x0,0
800004d0:	0020d733          	srl	x14,x1,x2
800004d4:	00120213          	addi	x4,x4,1 # 1 <_start-0x7fffffff>
800004d8:	00200293          	addi	x5,x0,2
800004dc:	fe5212e3          	bne	x4,x5,800004c0 <test_32+0x4>
800004e0:	00020eb7          	lui	x29,0x20
800004e4:	02000193          	addi	x3,x0,32
800004e8:	19d71e63          	bne	x14,x29,80000684 <fail>

800004ec <test_33>:
800004ec:	00000213          	addi	x4,x0,0
800004f0:	800000b7          	lui	x1,0x80000
800004f4:	00000013          	addi	x0,x0,0
800004f8:	00000013          	addi	x0,x0,0
800004fc:	01f00113          	addi	x2,x0,31
80000500:	0020d733          	srl	x14,x1,x2
80000504:	00120213          	addi	x4,x4,1 # 1 <_start-0x7fffffff>
80000508:	00200293          	addi	x5,x0,2
8000050c:	fe5212e3          	bne	x4,x5,800004f0 <test_33+0x4>
80000510:	00100e93          	addi	x29,x0,1
80000514:	02100193          	addi	x3,x0,33
80000518:	17d71663          	bne	x14,x29,80000684 <fail>

8000051c <test_34>:
8000051c:	00000213          	addi	x4,x0,0
80000520:	00700113          	addi	x2,x0,7
80000524:	800000b7          	lui	x1,0x80000
80000528:	0020d733          	srl	x14,x1,x2
8000052c:	00120213          	addi	x4,x4,1 # 1 <_start-0x7fffffff>
80000530:	00200293          	addi	x5,x0,2
80000534:	fe5216e3          	bne	x4,x5,80000520 <test_34+0x4>
80000538:	01000eb7          	lui	x29,0x1000
8000053c:	02200193          	addi	x3,x0,34
80000540:	15d71263          	bne	x14,x29,80000684 <fail>

80000544 <test_35>:
80000544:	00000213          	addi	x4,x0,0
80000548:	00e00113          	addi	x2,x0,14
8000054c:	800000b7          	lui	x1,0x80000
80000550:	00000013          	addi	x0,x0,0
80000554:	0020d733          	srl	x14,x1,x2
80000558:	00120213          	addi	x4,x4,1 # 1 <_start-0x7fffffff>
8000055c:	00200293          	addi	x5,x0,2
80000560:	fe5214e3          	bne	x4,x5,80000548 <test_35+0x4>
80000564:	00020eb7          	lui	x29,0x20
80000568:	02300193          	addi	x3,x0,35
8000056c:	11d71c63          	bne	x14,x29,80000684 <fail>

80000570 <test_36>:
80000570:	00000213          	addi	x4,x0,0
80000574:	01f00113          	addi	x2,x0,31
80000578:	800000b7          	lui	x1,0x80000
8000057c:	00000013          	addi	x0,x0,0
80000580:	00000013          	addi	x0,x0,0
80000584:	0020d733          	srl	x14,x1,x2
80000588:	00120213          	addi	x4,x4,1 # 1 <_start-0x7fffffff>
8000058c:	00200293          	addi	x5,x0,2
80000590:	fe5212e3          	bne	x4,x5,80000574 <test_36+0x4>
80000594:	00100e93          	addi	x29,x0,1
80000598:	02400193          	addi	x3,x0,36
8000059c:	0fd71463          	bne	x14,x29,80000684 <fail>

800005a0 <test_37>:
800005a0:	00000213          	addi	x4,x0,0
800005a4:	00700113          	addi	x2,x0,7
800005a8:	00000013          	addi	x0,x0,0
800005ac:	800000b7          	lui	x1,0x80000
800005b0:	0020d733          	srl	x14,x1,x2
800005b4:	00120213          	addi	x4,x4,1 # 1 <_start-0x7fffffff>
800005b8:	00200293          	addi	x5,x0,2
800005bc:	fe5214e3          	bne	x4,x5,800005a4 <test_37+0x4>
800005c0:	01000eb7          	lui	x29,0x1000
800005c4:	02500193          	addi	x3,x0,37
800005c8:	0bd71e63          	bne	x14,x29,80000684 <fail>

800005cc <test_38>:
800005cc:	00000213          	addi	x4,x0,0
800005d0:	00e00113          	addi	x2,x0,14
800005d4:	00000013          	addi	x0,x0,0
800005d8:	800000b7          	lui	x1,0x80000
800005dc:	00000013          	addi	x0,x0,0
800005e0:	0020d733          	srl	x14,x1,x2
800005e4:	00120213          	addi	x4,x4,1 # 1 <_start-0x7fffffff>
800005e8:	00200293          	addi	x5,x0,2
800005ec:	fe5212e3          	bne	x4,x5,800005d0 <test_38+0x4>
800005f0:	00020eb7          	lui	x29,0x20
800005f4:	02600193          	addi	x3,x0,38
800005f8:	09d71663          	bne	x14,x29,80000684 <fail>

800005fc <test_39>:
800005fc:	00000213          	addi	x4,x0,0
80000600:	01f00113          	addi	x2,x0,31
80000604:	00000013          	addi	x0,x0,0
80000608:	00000013          	addi	x0,x0,0
8000060c:	800000b7          	lui	x1,0x80000
80000610:	0020d733          	srl	x14,x1,x2
80000614:	00120213          	addi	x4,x4,1 # 1 <_start-0x7fffffff>
80000618:	00200293          	addi	x5,x0,2
8000061c:	fe5212e3          	bne	x4,x5,80000600 <test_39+0x4>
80000620:	00100e93          	addi	x29,x0,1
80000624:	02700193          	addi	x3,x0,39
80000628:	05d71e63          	bne	x14,x29,80000684 <fail>

8000062c <test_40>:
8000062c:	00f00093          	addi	x1,x0,15
80000630:	00105133          	srl	x2,x0,x1
80000634:	00000e93          	addi	x29,x0,0
80000638:	02800193          	addi	x3,x0,40
8000063c:	05d11463          	bne	x2,x29,80000684 <fail>

80000640 <test_41>:
80000640:	02000093          	addi	x1,x0,32
80000644:	0000d133          	srl	x2,x1,x0
80000648:	02000e93          	addi	x29,x0,32
8000064c:	02900193          	addi	x3,x0,41
80000650:	03d11a63          	bne	x2,x29,80000684 <fail>

80000654 <test_42>:
80000654:	000050b3          	srl	x1,x0,x0
80000658:	00000e93          	addi	x29,x0,0
8000065c:	02a00193          	addi	x3,x0,42
80000660:	03d09263          	bne	x1,x29,80000684 <fail>

80000664 <test_43>:
80000664:	40000093          	addi	x1,x0,1024
80000668:	00001137          	lui	x2,0x1
8000066c:	80010113          	addi	x2,x2,-2048 # 800 <_start-0x7ffff800>
80000670:	0020d033          	srl	x0,x1,x2
80000674:	00000e93          	addi	x29,x0,0
80000678:	02b00193          	addi	x3,x0,43
8000067c:	01d01463          	bne	x0,x29,80000684 <fail>
80000680:	00301c63          	bne	x0,x3,80000698 <pass>

80000684 <fail>:
80000684:	0ff0000f          	fence	iorw,iorw
80000688:	00018063          	beq	x3,x0,80000688 <fail+0x4>
8000068c:	00119193          	slli	x3,x3,0x1
80000690:	0011e193          	ori	x3,x3,1
80000694:	00000073          	ecall

80000698 <pass>:
80000698:	0ff0000f          	fence	iorw,iorw
8000069c:	00100193          	addi	x3,x0,1
800006a0:	00000073          	ecall
800006a4:	c0001073          	unimp
800006a8:	0000                	unimp
800006aa:	0000                	unimp
800006ac:	0000                	unimp
800006ae:	0000                	unimp
800006b0:	0000                	unimp
800006b2:	0000                	unimp
800006b4:	0000                	unimp
800006b6:	0000                	unimp
800006b8:	0000                	unimp
800006ba:	0000                	unimp
800006bc:	0000                	unimp
800006be:	0000                	unimp
800006c0:	0000                	unimp
800006c2:	0000                	unimp
